target datalayout = "e-m:e-p270:32:32-p271:32:32-p272:64:64-i64:64-i128:128-f80:128-n8:16:32:64-S128"
target triple = "x86_64-pc-linux-gnu"

%struct.SDL_RenderViewState = type { i32, i32, %struct.SDL_Rect, %struct.SDL_Rect, %struct.SDL_Rect, %struct.SDL_Rect, i8, %struct.SDL_FPoint, i32, i32, i32, %struct.SDL_FRect, %struct.SDL_FRect, %struct.SDL_FPoint, %struct.SDL_FPoint, %struct.SDL_FPoint }
%struct.SDL_FRect = type { float, float, float, float }
%struct.SDL_FPoint = type { float, float }
%struct.SDL_FColor = type { float, float, float, float }
%struct.SDL_Rect = type { i32, i32, i32, i32 }
%struct.SDL_Texture = type { i32, i32, i32, i32, i32, float, float, i32, i32, i32, %struct.SDL_FColor, %struct.SDL_RenderViewState, ptr, ptr, ptr, ptr, i32, %struct.SDL_Rect, ptr, i32, i32, ptr, ptr, ptr }
%struct.GL_TextureData = type { i32, i8, float, float, i32, i32, i32, [4 x float], ptr, ptr, i32, %struct.SDL_Rect, i8, i8, i32, i8, i32, i8, i32, i32, i32, ptr }

; Function Attrs: nounwind uwtable
define internal void @GL_UnlockTexture(ptr noundef %0, ptr noundef %1) #0 {
  %3 = alloca ptr, align 8
  %4 = alloca ptr, align 8
  %5 = alloca ptr, align 8
  %6 = alloca ptr, align 8
  %7 = alloca ptr, align 8
  store ptr %0, ptr %3, align 8
  store ptr %1, ptr %4, align 8
  call void @llvm.lifetime.start.p0(i64 8, ptr %5) #4
  %8 = load ptr, ptr %4, align 8
  %9 = getelementptr inbounds nuw %struct.SDL_Texture, ptr %8, i32 0, i32 21
  %10 = load ptr, ptr %9, align 8
  store ptr %10, ptr %5, align 8
  call void @llvm.lifetime.start.p0(i64 8, ptr %6) #4
  call void @llvm.lifetime.start.p0(i64 8, ptr %7) #4
  %11 = load ptr, ptr %5, align 8
  %12 = getelementptr inbounds nuw %struct.GL_TextureData, ptr %11, i32 0, i32 11
  store ptr %12, ptr %6, align 8
  %13 = load ptr, ptr %5, align 8
  %14 = getelementptr inbounds nuw %struct.GL_TextureData, ptr %13, i32 0, i32 9
  %15 = load ptr, ptr %14, align 8
  %16 = load ptr, ptr %6, align 8
  %17 = getelementptr inbounds nuw %struct.SDL_Rect, ptr %16, i32 0, i32 1
  %18 = load i32, ptr %17, align 4
  %19 = load ptr, ptr %5, align 8
  %20 = getelementptr inbounds nuw %struct.GL_TextureData, ptr %19, i32 0, i32 10
  %21 = load i32, ptr %20, align 8
  %22 = mul nsw i32 %18, %21
  %23 = sext i32 %22 to i64
  %24 = getelementptr inbounds i8, ptr %15, i64 %23
  %25 = load ptr, ptr %6, align 8
  %26 = getelementptr inbounds nuw %struct.SDL_Rect, ptr %25, i32 0, i32 0
  %27 = load i32, ptr %26, align 4
  %28 = load ptr, ptr %4, align 8
  %29 = getelementptr inbounds nuw %struct.SDL_Texture, ptr %28, i32 0, i32 0
  %30 = load i32, ptr %29, align 8
  %31 = icmp ne i32 %30, 0
  br i1 %31, label %32, label %62

32:                                               ; preds = %2
  %33 = load ptr, ptr %4, align 8
  %34 = getelementptr inbounds nuw %struct.SDL_Texture, ptr %33, i32 0, i32 0
  %35 = load i32, ptr %34, align 8
  %36 = lshr i32 %35, 28
  %37 = and i32 %36, 15
  %38 = icmp ne i32 %37, 1
  br i1 %38, label %39, label %62

39:                                               ; preds = %32
  %40 = load ptr, ptr %4, align 8
  %41 = getelementptr inbounds nuw %struct.SDL_Texture, ptr %40, i32 0, i32 0
  %42 = load i32, ptr %41, align 8
  %43 = icmp eq i32 %42, 844715353
  br i1 %43, label %59, label %44

44:                                               ; preds = %39
  %45 = load ptr, ptr %4, align 8
  %46 = getelementptr inbounds nuw %struct.SDL_Texture, ptr %45, i32 0, i32 0
  %47 = load i32, ptr %46, align 8
  %48 = icmp eq i32 %47, 1498831189
  br i1 %48, label %59, label %49

49:                                               ; preds = %44
  %50 = load ptr, ptr %4, align 8
  %51 = getelementptr inbounds nuw %struct.SDL_Texture, ptr %50, i32 0, i32 0
  %52 = load i32, ptr %51, align 8
  %53 = icmp eq i32 %52, 1431918169
  br i1 %53, label %59, label %54

54:                                               ; preds = %49
  %55 = load ptr, ptr %4, align 8
  %56 = getelementptr inbounds nuw %struct.SDL_Texture, ptr %55, i32 0, i32 0
  %57 = load i32, ptr %56, align 8
  %58 = icmp eq i32 %57, 808530000
  br label %59

59:                                               ; preds = %54, %49, %44, %39
  %60 = phi i1 [ true, %49 ], [ true, %44 ], [ true, %39 ], [ %58, %54 ]
  %61 = select i1 %60, i32 2, i32 1
  br label %68

62:                                               ; preds = %32, %2
  %63 = load ptr, ptr %4, align 8
  %64 = getelementptr inbounds nuw %struct.SDL_Texture, ptr %63, i32 0, i32 0
  %65 = load i32, ptr %64, align 8
  %66 = lshr i32 %65, 0
  %67 = and i32 %66, 255
  br label %68

68:                                               ; preds = %62, %59
  %69 = phi i32 [ %61, %59 ], [ %67, %62 ]
  %70 = mul i32 %27, %69
  %71 = zext i32 %70 to i64
  %72 = getelementptr inbounds nuw i8, ptr %24, i64 %71
  store ptr %72, ptr %7, align 8
  %73 = load ptr, ptr %3, align 8
  %74 = load ptr, ptr %4, align 8
  %75 = load ptr, ptr %6, align 8
  %76 = load ptr, ptr %7, align 8
  %77 = load ptr, ptr %5, align 8
  %78 = getelementptr inbounds nuw %struct.GL_TextureData, ptr %77, i32 0, i32 10
  %79 = load i32, ptr %78, align 8
  %80 = call zeroext i1 @GL_UpdateTexture(ptr noundef %73, ptr noundef %74, ptr noundef %75, ptr noundef %76, i32 noundef %79)
  call void @llvm.lifetime.end.p0(i64 8, ptr %7) #4
  call void @llvm.lifetime.end.p0(i64 8, ptr %6) #4
  call void @llvm.lifetime.end.p0(i64 8, ptr %5) #4
  ret void
}