; Function Attrs: nounwind uwtable
define internal void @GL_UnlockTexture(ptr noundef readonly captures(none) %0, ptr noundef readonly captures(none) %1) #0 {
  %3 = getelementptr inbounds nuw i8, ptr %1, i64 280
  %4 = load ptr, ptr %3, align 8
  %5 = getelementptr inbounds nuw i8, ptr %4, i64 68
  %6 = getelementptr inbounds nuw i8, ptr %4, i64 56
  %7 = load ptr, ptr %6, align 8
  %8 = getelementptr inbounds nuw i8, ptr %4, i64 72
  %9 = load i32, ptr %8, align 4
  %10 = getelementptr inbounds nuw i8, ptr %4, i64 64
  %11 = load i32, ptr %10, align 8
  %12 = load i32, ptr %5, align 4
  %13 = load i32, ptr %1, align 8
  %.not = icmp eq i32 %13, 0
  %.mask = and i32 %13, -268435456
  %.not18 = icmp eq i32 %.mask, 268435456
  %or.cond = or i1 %.not, %.not18
  br i1 %or.cond, label %18, label %14

14:                                               ; preds = %2
  switch i32 %13, label %15 [
    i32 844715353, label %20
    i32 1498831189, label %20
    i32 1431918169, label %20
  ]

15:                                               ; preds = %14
  %16 = icmp eq i32 %13, 808530000
  %17 = select i1 %16, i32 2, i32 1
  br label %20

18:                                               ; preds = %2
  %19 = and i32 %13, 255
  br label %20

20:                                               ; preds = %15, %14, %14, %14, %18
  %21 = phi i32 [ %19, %18 ], [ 2, %14 ], [ %17, %15 ], [ 2, %14 ], [ 2, %14 ]
  %22 = mul nsw i32 %11, %9
  %23 = sext i32 %22 to i64
  %24 = getelementptr inbounds i8, ptr %7, i64 %23
  %25 = mul i32 %21, %12
  %26 = zext i32 %25 to i64
  %27 = getelementptr inbounds nuw i8, ptr %24, i64 %26
  %28 = tail call zeroext i1 @GL_UpdateTexture(ptr noundef %0, ptr noundef nonnull %1, ptr noundef nonnull %5, ptr noundef %27, i32 noundef %11)
  ret void
}